; Function Attrs: mustprogress nofree norecurse nosync nounwind willreturn memory(argmem: write) uwtable
define hidden void @_ZN12stringStreamC2EPcm(ptr nocapture noundef nonnull writeonly align 8 dereferenceable(129) %0, ptr noundef %1, i64 noundef %2) unnamed_addr #8 align 2 {
  %4 = getelementptr inbounds i8, ptr %0, i64 16
  store i32 0, ptr %4, align 8
  %5 = getelementptr inbounds i8, ptr %0, i64 24
  %6 = getelementptr inbounds i8, ptr %0, i64 8
  store i32 0, ptr %6, align 8
  %7 = getelementptr inbounds i8, ptr %0, i64 12
  store i8 0, ptr %7, align 4
  tail call void @llvm.memset.p0.i64(ptr noundef nonnull align 8 dereferenceable(32) %5, i8 0, i64 32, i1 false)
  store ptr getelementptr inbounds inrange(-16, 40) (i8, ptr @_ZTV12stringStream, i64 16), ptr %0, align 8
  %8 = getelementptr inbounds i8, ptr %0, i64 56
  store ptr %1, ptr %8, align 8
  %9 = getelementptr inbounds i8, ptr %0, i64 64
  store i64 0, ptr %9, align 8
  %10 = getelementptr inbounds i8, ptr %0, i64 72
  store i64 %2, ptr %10, align 8
  %11 = getelementptr inbounds i8, ptr %0, i64 80
  store i8 1, ptr %11, align 8
  store i8 0, ptr %1, align 1
  ret void
}